; Function Attrs: nounwind uwtable
define hidden void @zim_PDOStatement_getIterator(ptr noundef %0, ptr noundef %1) #0 {
  %3 = getelementptr inbounds nuw i8, ptr %0, i64 44
  %4 = load i32, ptr %3, align 4, !tbaa !37
  %.not = icmp eq i32 %4, 0
  br i1 %.not, label %.critedge, label %5, !prof !104

5:                                                ; preds = %2
  tail call void @zend_wrong_parameters_none_error() #17
  br label %8

.critedge:                                        ; preds = %2
  %6 = getelementptr inbounds nuw i8, ptr %0, i64 32
  %7 = tail call i32 @zend_create_internal_iterator_zval(ptr noundef %1, ptr noundef nonnull %6) #17
  br label %8

8:                                                ; preds = %5, %.critedge
  ret void
}